target datalayout = "e-m:e-p270:32:32-p271:32:32-p272:64:64-i64:64-i128:128-f80:128-n8:16:32:64-S128"
target triple = "x86_64-pc-linux-gnu"

@.str = private unnamed_addr constant [9 x i8] c"BAD WORD\00", align 1

; Function Attrs: mustprogress nounwind uwtable
define hidden void @_ZNK17stackChunkOopDesc8print_onEbP12outputStream(ptr noundef nonnull align 8 dereferenceable(16) %0, i1 noundef zeroext %1, ptr noundef %2) #1 align 2 {
  %4 = alloca ptr, align 8
  %5 = alloca i8, align 1
  %6 = alloca ptr, align 8
  store ptr %0, ptr %4, align 8
  %7 = zext i1 %1 to i8
  store i8 %7, ptr %5, align 1
  store ptr %2, ptr %6, align 8
  %8 = load ptr, ptr %4, align 8
  %9 = load i32, ptr %8, align 4
  %10 = icmp eq i32 %9, -1163019586
  br i1 %10, label %11, label %13

11:                                               ; preds = %3
  %12 = load ptr, ptr %6, align 8
  call void (ptr, ptr, ...) @_ZN12outputStream8print_crEPKcz(ptr noundef nonnull align 8 dereferenceable(56) %12, ptr noundef @.str)
  br label %17

13:                                               ; preds = %3
  %14 = load i8, ptr %5, align 1
  %15 = trunc i8 %14 to i1
  %16 = load ptr, ptr %6, align 8
  call void @_ZN23InstanceStackChunkKlass11print_chunkEP17stackChunkOopDescbP12outputStream(ptr noundef %8, i1 noundef zeroext %15, ptr noundef %16)
  br label %17

17:                                               ; preds = %13, %11
  ret void
}