; Function Attrs: mustprogress nounwind uwtable
define hidden void @_ZNK17stackChunkOopDesc8print_onEbP12outputStream(ptr noundef nonnull align 8 dereferenceable(16) %0, i1 noundef zeroext %1, ptr noundef %2) local_unnamed_addr #0 align 2 {
  %4 = load i32, ptr %0, align 8
  %5 = icmp eq i32 %4, -1163019586
  br i1 %5, label %6, label %7

6:                                                ; preds = %3
  tail call void (ptr, ptr, ...) @_ZN12outputStream8print_crEPKcz(ptr noundef nonnull align 8 dereferenceable(56) %2, ptr noundef nonnull @.str) #9
  br label %8

7:                                                ; preds = %3
  tail call void @_ZN23InstanceStackChunkKlass11print_chunkEP17stackChunkOopDescbP12outputStream(ptr noundef nonnull %0, i1 noundef zeroext %1, ptr noundef %2) #9
  br label %8

8:                                                ; preds = %7, %6
  ret void
}